target datalayout = "e-m:e-p270:32:32-p271:32:32-p272:64:64-i64:64-i128:128-f80:128-n8:16:32:64-S128"
target triple = "x86_64-pc-linux-gnu"

%struct.writeoutvar = type { ptr, i32, i32, ptr }
%struct.per_transfer = type { ptr, ptr, ptr, ptr, ptr, i64, i64, i64, i64, %struct.timeval, %struct.timeval, ptr, i32, ptr, i32, %struct.ProgressData, %struct.OutStruct, %struct.OutStruct, %struct.OutStruct, %struct.HdrCbData, i64, i64, i64, i64, i64, i64, i64, i64, i8, i8, ptr, ptr, i8, i8, i8, i8, i8, i8 }
%struct.timeval = type { i64, i64 }
%struct.ProgressData = type { i32, i64, %struct.timeval, i32, ptr, i64, i32, i32, i32 }
%struct.OutStruct = type { ptr, i8, i8, i8, i8, ptr, i64, i64 }
%struct.HdrCbData = type { ptr, ptr, ptr, ptr, ptr, ptr, i8 }

@.str.82 = private unnamed_addr constant [6 x i8] c"\22%s\22:\00", align 1
@.str.83 = private unnamed_addr constant [10 x i8] c"\22%s\22:null\00", align 1
@.str.90 = private unnamed_addr constant [4 x i8] c"%ld\00", align 1

; Function Attrs: nounwind uwtable
define internal i32 @writeOffset(ptr noundef %0, ptr noundef %1, ptr noundef %2, i32 noundef %3, i1 noundef zeroext %4) #0 {
  %6 = alloca ptr, align 8
  %7 = alloca ptr, align 8
  %8 = alloca ptr, align 8
  %9 = alloca i32, align 4
  %10 = alloca i8, align 1
  %11 = alloca i8, align 1
  %12 = alloca i64, align 8
  store ptr %0, ptr %6, align 8, !tbaa !13
  store ptr %1, ptr %7, align 8, !tbaa !34
  store ptr %2, ptr %8, align 8, !tbaa !9
  store i32 %3, ptr %9, align 4, !tbaa !11
  %13 = zext i1 %4 to i8
  store i8 %13, ptr %10, align 1, !tbaa !30
  call void @llvm.lifetime.start.p0(i64 1, ptr %11) #7
  store i8 0, ptr %11, align 1, !tbaa !30
  call void @llvm.lifetime.start.p0(i64 8, ptr %12) #7
  store i64 0, ptr %12, align 8, !tbaa !38
  br label %14

14:                                               ; preds = %5
  br label %15

15:                                               ; preds = %14
  br label %16

16:                                               ; preds = %15
  %17 = load ptr, ptr %7, align 8, !tbaa !34
  %18 = getelementptr inbounds nuw %struct.writeoutvar, ptr %17, i32 0, i32 2
  %19 = load i32, ptr %18, align 4, !tbaa !57
  %20 = icmp ne i32 %19, 0
  br i1 %20, label %21, label %32

21:                                               ; preds = %16
  %22 = load ptr, ptr %8, align 8, !tbaa !9
  %23 = getelementptr inbounds nuw %struct.per_transfer, ptr %22, i32 0, i32 4
  %24 = load ptr, ptr %23, align 8, !tbaa !43
  %25 = load ptr, ptr %7, align 8, !tbaa !34
  %26 = getelementptr inbounds nuw %struct.writeoutvar, ptr %25, i32 0, i32 2
  %27 = load i32, ptr %26, align 4, !tbaa !57
  %28 = call i32 (ptr, i32, ...) @curl_easy_getinfo(ptr noundef %24, i32 noundef %27, ptr noundef %12)
  %29 = icmp ne i32 %28, 0
  br i1 %29, label %31, label %30

30:                                               ; preds = %21
  store i8 1, ptr %11, align 1, !tbaa !30
  br label %31

31:                                               ; preds = %30, %21
  br label %36

32:                                               ; preds = %16
  br label %33

33:                                               ; preds = %32
  br label %34

34:                                               ; preds = %33
  br label %35

35:                                               ; preds = %34
  br label %36

36:                                               ; preds = %35, %31
  %37 = load i8, ptr %11, align 1, !tbaa !30, !range !32, !noundef !33
  %38 = trunc i8 %37 to i1
  br i1 %38, label %39, label %52

39:                                               ; preds = %36
  %40 = load i8, ptr %10, align 1, !tbaa !30, !range !32, !noundef !33
  %41 = trunc i8 %40 to i1
  br i1 %41, label %42, label %48

42:                                               ; preds = %39
  %43 = load ptr, ptr %6, align 8, !tbaa !13
  %44 = load ptr, ptr %7, align 8, !tbaa !34
  %45 = getelementptr inbounds nuw %struct.writeoutvar, ptr %44, i32 0, i32 0
  %46 = load ptr, ptr %45, align 8, !tbaa !39
  %47 = call i32 (ptr, ptr, ...) @curl_mfprintf(ptr noundef %43, ptr noundef @.str.82, ptr noundef %46)
  br label %48

48:                                               ; preds = %42, %39
  %49 = load ptr, ptr %6, align 8, !tbaa !13
  %50 = load i64, ptr %12, align 8, !tbaa !38
  %51 = call i32 (ptr, ptr, ...) @curl_mfprintf(ptr noundef %49, ptr noundef @.str.90, i64 noundef %50)
  br label %62

52:                                               ; preds = %36
  %53 = load i8, ptr %10, align 1, !tbaa !30, !range !32, !noundef !33
  %54 = trunc i8 %53 to i1
  br i1 %54, label %55, label %61

55:                                               ; preds = %52
  %56 = load ptr, ptr %6, align 8, !tbaa !13
  %57 = load ptr, ptr %7, align 8, !tbaa !34
  %58 = getelementptr inbounds nuw %struct.writeoutvar, ptr %57, i32 0, i32 0
  %59 = load ptr, ptr %58, align 8, !tbaa !39
  %60 = call i32 (ptr, ptr, ...) @curl_mfprintf(ptr noundef %56, ptr noundef @.str.83, ptr noundef %59)
  br label %61

61:                                               ; preds = %55, %52
  br label %62

62:                                               ; preds = %61, %48
  call void @llvm.lifetime.end.p0(i64 8, ptr %12) #7
  call void @llvm.lifetime.end.p0(i64 1, ptr %11) #7
  ret i32 1
}