; Function Attrs: nounwind uwtable
define internal noundef i32 @writeOffset(ptr noundef %0, ptr noundef readonly captures(none) %1, ptr noundef readonly captures(none) %2, i32 %3, i1 noundef zeroext %4) #0 {
  %6 = alloca i64, align 8
  call void @llvm.lifetime.start.p0(i64 8, ptr nonnull %6) #7
  store i64 0, ptr %6, align 8, !tbaa !48
  %7 = getelementptr inbounds nuw i8, ptr %1, i64 12
  %8 = load i32, ptr %7, align 4, !tbaa !47
  %.not = icmp eq i32 %8, 0
  br i1 %.not, label %.critedge, label %9

9:                                                ; preds = %5
  %10 = getelementptr inbounds nuw i8, ptr %2, i64 32
  %11 = load ptr, ptr %10, align 8, !tbaa !32
  %12 = call i32 (ptr, i32, ...) @curl_easy_getinfo(ptr noundef %11, i32 noundef %8, ptr noundef nonnull %6) #7
  %.not11 = icmp eq i32 %12, 0
  br i1 %.not11, label %13, label %.critedge

13:                                               ; preds = %9
  br i1 %4, label %14, label %17

14:                                               ; preds = %13
  %15 = load ptr, ptr %1, align 8, !tbaa !26
  %16 = call i32 (ptr, ptr, ...) @curl_mfprintf(ptr noundef %0, ptr noundef nonnull @.str.82, ptr noundef %15) #7
  br label %17

17:                                               ; preds = %14, %13
  %18 = load i64, ptr %6, align 8, !tbaa !48
  %19 = call i32 (ptr, ptr, ...) @curl_mfprintf(ptr noundef %0, ptr noundef nonnull @.str.90, i64 noundef %18) #7
  br label %23

.critedge:                                        ; preds = %5, %9
  br i1 %4, label %20, label %23

20:                                               ; preds = %.critedge
  %21 = load ptr, ptr %1, align 8, !tbaa !26
  %22 = call i32 (ptr, ptr, ...) @curl_mfprintf(ptr noundef %0, ptr noundef nonnull @.str.83, ptr noundef %21) #7
  br label %23

23:                                               ; preds = %.critedge, %20, %17
  call void @llvm.lifetime.end.p0(i64 8, ptr nonnull %6) #7
  ret i32 1
}